; Function Attrs: nounwind uwtable
define ptr @EVP_MD_gettable_params(ptr noundef %0) local_unnamed_addr #0 {
  %.not = icmp eq ptr %0, null
  br i1 %.not, label %9, label %2

2:                                                ; preds = %1
  %3 = getelementptr inbounds nuw i8, ptr %0, i64 224
  %4 = load ptr, ptr %3, align 8, !tbaa !71
  %.not7 = icmp eq ptr %4, null
  br i1 %.not7, label %9, label %5

5:                                                ; preds = %2
  %6 = tail call ptr @EVP_MD_get0_provider(ptr noundef nonnull %0) #8
  %7 = tail call ptr @ossl_provider_ctx(ptr noundef %6) #8
  %8 = tail call ptr %4(ptr noundef %7) #8
  br label %9

9:                                                ; preds = %1, %2, %5
  %.0 = phi ptr [ %8, %5 ], [ null, %2 ], [ null, %1 ]
  ret ptr %.0
}